target datalayout = "e-m:e-p270:32:32-p271:32:32-p272:64:64-i64:64-i128:128-f80:128-n8:16:32:64-S128"
target triple = "x86_64-pc-linux-gnu"

@GUC_check_errdetail_string = external global ptr, align 8
@log_statement_stats = external global i8, align 1
@.str.35 = private unnamed_addr constant [60 x i8] c"Cannot enable parameter when \22log_statement_stats\22 is true.\00", align 1

; Function Attrs: nounwind uwtable
define dso_local zeroext i1 @check_stage_log_stats(ptr noundef %0, ptr noundef %1, i32 noundef %2) #0 {
  %4 = alloca i1, align 1
  %5 = alloca ptr, align 8
  %6 = alloca ptr, align 8
  %7 = alloca i32, align 4
  store ptr %0, ptr %5, align 8
  store ptr %1, ptr %6, align 8
  store i32 %2, ptr %7, align 4
  %8 = load ptr, ptr %5, align 8
  %9 = load i8, ptr %8, align 1, !range !4, !noundef !5
  %10 = trunc i8 %9 to i1
  br i1 %10, label %11, label %18

11:                                               ; preds = %3
  %12 = load i8, ptr @log_statement_stats, align 1, !range !4, !noundef !5
  %13 = trunc i8 %12 to i1
  br i1 %13, label %14, label %18

14:                                               ; preds = %11
  %15 = call ptr @__errno_location() #17
  %16 = load i32, ptr %15, align 4
  call void @pre_format_elog_string(i32 noundef %16, ptr noundef null)
  %17 = call ptr (ptr, ...) @format_elog_string(ptr noundef @.str.35)
  store ptr %17, ptr @GUC_check_errdetail_string, align 8
  store i1 false, ptr %4, align 1
  br label %19

18:                                               ; preds = %11, %3
  store i1 true, ptr %4, align 1
  br label %19

19:                                               ; preds = %18, %14
  %20 = load i1, ptr %4, align 1
  ret i1 %20
}