; Function Attrs: nounwind uwtable
define dso_local noundef zeroext i1 @check_stage_log_stats(ptr noundef readonly captures(none) %0, ptr noundef readnone captures(none) %1, i32 noundef %2) local_unnamed_addr #0 {
  %4 = load i8, ptr %0, align 1, !range !5, !noundef !6
  %5 = trunc nuw i8 %4 to i1
  br i1 %5, label %6, label %13

6:                                                ; preds = %3
  %7 = load i8, ptr @log_statement_stats, align 1, !range !5, !noundef !6
  %8 = trunc nuw i8 %7 to i1
  br i1 %8, label %9, label %13

9:                                                ; preds = %6
  %10 = tail call ptr @__errno_location() #21
  %11 = load i32, ptr %10, align 4
  tail call void @pre_format_elog_string(i32 noundef %11, ptr noundef null) #22
  %12 = tail call ptr (ptr, ...) @format_elog_string(ptr noundef nonnull @.str.35) #22
  store ptr %12, ptr @GUC_check_errdetail_string, align 8
  br label %13

13:                                               ; preds = %3, %6, %9
  %.0 = phi i1 [ false, %9 ], [ true, %6 ], [ true, %3 ]
  ret i1 %.0
}